target datalayout = "e-m:e-p270:32:32-p271:32:32-p272:64:64-i64:64-i128:128-f80:128-n8:16:32:64-S128"
target triple = "x86_64-pc-linux-gnu"

%struct.jpeg_compress_struct = type { ptr, ptr, ptr, ptr, i32, i32, ptr, i32, i32, i32, i32, double, i32, i32, i32, ptr, [4 x ptr], [4 x ptr], [4 x ptr], [16 x i8], [16 x i8], [16 x i8], i32, ptr, i32, i32, i32, i32, i32, i32, i32, i32, i32, i8, i8, i8, i16, i16, i32, i32, i32, i32, i32, i32, i32, [4 x ptr], i32, i32, i32, [10 x i32], i32, i32, i32, i32, ptr, ptr, ptr, ptr, ptr, ptr, ptr, ptr, ptr, ptr, i32 }
%struct.jpeg_error_mgr = type { ptr, ptr, ptr, ptr, ptr, i32, %union.anon, i32, i64, ptr, i32, ptr, i32, i32 }
%union.anon = type { [8 x i32], [48 x i8] }
%struct.ppm_source_struct = type { %struct.cjpeg_source_struct, ptr, ptr, i64, ptr, i32 }
%struct.cjpeg_source_struct = type { ptr, ptr, ptr, ptr, ptr, ptr, ptr, i32, i32 }

; Function Attrs: alwaysinline nounwind uwtable
define internal void @rgb_to_cmyk(i32 noundef %0, i8 noundef zeroext %1, i8 noundef zeroext %2, i8 noundef zeroext %3, ptr noundef %4, ptr noundef %5, ptr noundef %6, ptr noundef %7) #4 {
  %9 = alloca i32, align 4
  %10 = alloca i8, align 1
  %11 = alloca i8, align 1
  %12 = alloca i8, align 1
  %13 = alloca ptr, align 8
  %14 = alloca ptr, align 8
  %15 = alloca ptr, align 8
  %16 = alloca ptr, align 8
  %17 = alloca double, align 8
  %18 = alloca double, align 8
  %19 = alloca double, align 8
  %20 = alloca double, align 8
  store i32 %0, ptr %9, align 4, !tbaa !49
  store i8 %1, ptr %10, align 1, !tbaa !32
  store i8 %2, ptr %11, align 1, !tbaa !32
  store i8 %3, ptr %12, align 1, !tbaa !32
  store ptr %4, ptr %13, align 8, !tbaa !73
  store ptr %5, ptr %14, align 8, !tbaa !73
  store ptr %6, ptr %15, align 8, !tbaa !73
  store ptr %7, ptr %16, align 8, !tbaa !73
  call void @llvm.lifetime.start.p0(i64 8, ptr %17) #6
  %21 = load i8, ptr %10, align 1, !tbaa !32
  %22 = uitofp i8 %21 to double
  %23 = load i32, ptr %9, align 4, !tbaa !49
  %24 = sitofp i32 %23 to double
  %25 = fdiv double %22, %24
  %26 = fsub double 1.000000e+00, %25
  store double %26, ptr %17, align 8, !tbaa !106
  call void @llvm.lifetime.start.p0(i64 8, ptr %18) #6
  %27 = load i8, ptr %11, align 1, !tbaa !32
  %28 = uitofp i8 %27 to double
  %29 = load i32, ptr %9, align 4, !tbaa !49
  %30 = sitofp i32 %29 to double
  %31 = fdiv double %28, %30
  %32 = fsub double 1.000000e+00, %31
  store double %32, ptr %18, align 8, !tbaa !106
  call void @llvm.lifetime.start.p0(i64 8, ptr %19) #6
  %33 = load i8, ptr %12, align 1, !tbaa !32
  %34 = uitofp i8 %33 to double
  %35 = load i32, ptr %9, align 4, !tbaa !49
  %36 = sitofp i32 %35 to double
  %37 = fdiv double %34, %36
  %38 = fsub double 1.000000e+00, %37
  store double %38, ptr %19, align 8, !tbaa !106
  call void @llvm.lifetime.start.p0(i64 8, ptr %20) #6
  %39 = load double, ptr %17, align 8, !tbaa !106
  %40 = load double, ptr %18, align 8, !tbaa !106
  %41 = fcmp olt double %39, %40
  br i1 %41, label %42, label %44

42:                                               ; preds = %8
  %43 = load double, ptr %17, align 8, !tbaa !106
  br label %46

44:                                               ; preds = %8
  %45 = load double, ptr %18, align 8, !tbaa !106
  br label %46

46:                                               ; preds = %44, %42
  %47 = phi double [ %43, %42 ], [ %45, %44 ]
  %48 = load double, ptr %19, align 8, !tbaa !106
  %49 = fcmp olt double %47, %48
  br i1 %49, label %50, label %60

50:                                               ; preds = %46
  %51 = load double, ptr %17, align 8, !tbaa !106
  %52 = load double, ptr %18, align 8, !tbaa !106
  %53 = fcmp olt double %51, %52
  br i1 %53, label %54, label %56

54:                                               ; preds = %50
  %55 = load double, ptr %17, align 8, !tbaa !106
  br label %58

56:                                               ; preds = %50
  %57 = load double, ptr %18, align 8, !tbaa !106
  br label %58

58:                                               ; preds = %56, %54
  %59 = phi double [ %55, %54 ], [ %57, %56 ]
  br label %62

60:                                               ; preds = %46
  %61 = load double, ptr %19, align 8, !tbaa !106
  br label %62

62:                                               ; preds = %60, %58
  %63 = phi double [ %59, %58 ], [ %61, %60 ]
  store double %63, ptr %20, align 8, !tbaa !106
  %64 = load double, ptr %20, align 8, !tbaa !106
  %65 = fcmp oeq double %64, 1.000000e+00
  br i1 %65, label %66, label %67

66:                                               ; preds = %62
  store double 0.000000e+00, ptr %19, align 8, !tbaa !106
  store double 0.000000e+00, ptr %18, align 8, !tbaa !106
  store double 0.000000e+00, ptr %17, align 8, !tbaa !106
  br label %86

67:                                               ; preds = %62
  %68 = load double, ptr %17, align 8, !tbaa !106
  %69 = load double, ptr %20, align 8, !tbaa !106
  %70 = fsub double %68, %69
  %71 = load double, ptr %20, align 8, !tbaa !106
  %72 = fsub double 1.000000e+00, %71
  %73 = fdiv double %70, %72
  store double %73, ptr %17, align 8, !tbaa !106
  %74 = load double, ptr %18, align 8, !tbaa !106
  %75 = load double, ptr %20, align 8, !tbaa !106
  %76 = fsub double %74, %75
  %77 = load double, ptr %20, align 8, !tbaa !106
  %78 = fsub double 1.000000e+00, %77
  %79 = fdiv double %76, %78
  store double %79, ptr %18, align 8, !tbaa !106
  %80 = load double, ptr %19, align 8, !tbaa !106
  %81 = load double, ptr %20, align 8, !tbaa !106
  %82 = fsub double %80, %81
  %83 = load double, ptr %20, align 8, !tbaa !106
  %84 = fsub double 1.000000e+00, %83
  %85 = fdiv double %82, %84
  store double %85, ptr %19, align 8, !tbaa !106
  br label %86

86:                                               ; preds = %67, %66
  %87 = load i32, ptr %9, align 4, !tbaa !49
  %88 = sitofp i32 %87 to double
  %89 = load double, ptr %17, align 8, !tbaa !106
  %90 = load i32, ptr %9, align 4, !tbaa !49
  %91 = sitofp i32 %90 to double
  %92 = fneg double %89
  %93 = call double @llvm.fmuladd.f64(double %92, double %91, double %88)
  %94 = fadd double %93, 5.000000e-01
  %95 = fptoui double %94 to i8
  %96 = load ptr, ptr %13, align 8, !tbaa !73
  store i8 %95, ptr %96, align 1, !tbaa !32
  %97 = load i32, ptr %9, align 4, !tbaa !49
  %98 = sitofp i32 %97 to double
  %99 = load double, ptr %18, align 8, !tbaa !106
  %100 = load i32, ptr %9, align 4, !tbaa !49
  %101 = sitofp i32 %100 to double
  %102 = fneg double %99
  %103 = call double @llvm.fmuladd.f64(double %102, double %101, double %98)
  %104 = fadd double %103, 5.000000e-01
  %105 = fptoui double %104 to i8
  %106 = load ptr, ptr %14, align 8, !tbaa !73
  store i8 %105, ptr %106, align 1, !tbaa !32
  %107 = load i32, ptr %9, align 4, !tbaa !49
  %108 = sitofp i32 %107 to double
  %109 = load double, ptr %19, align 8, !tbaa !106
  %110 = load i32, ptr %9, align 4, !tbaa !49
  %111 = sitofp i32 %110 to double
  %112 = fneg double %109
  %113 = call double @llvm.fmuladd.f64(double %112, double %111, double %108)
  %114 = fadd double %113, 5.000000e-01
  %115 = fptoui double %114 to i8
  %116 = load ptr, ptr %15, align 8, !tbaa !73
  store i8 %115, ptr %116, align 1, !tbaa !32
  %117 = load i32, ptr %9, align 4, !tbaa !49
  %118 = sitofp i32 %117 to double
  %119 = load double, ptr %20, align 8, !tbaa !106
  %120 = load i32, ptr %9, align 4, !tbaa !49
  %121 = sitofp i32 %120 to double
  %122 = fneg double %119
  %123 = call double @llvm.fmuladd.f64(double %122, double %121, double %118)
  %124 = fadd double %123, 5.000000e-01
  %125 = fptoui double %124 to i8
  %126 = load ptr, ptr %16, align 8, !tbaa !73
  store i8 %125, ptr %126, align 1, !tbaa !32
  call void @llvm.lifetime.end.p0(i64 8, ptr %20) #6
  call void @llvm.lifetime.end.p0(i64 8, ptr %19) #6
  call void @llvm.lifetime.end.p0(i64 8, ptr %18) #6
  call void @llvm.lifetime.end.p0(i64 8, ptr %17) #6
  ret void
}

; Function Attrs: nounwind uwtable
define internal i32 @get_word_rgb_cmyk_row(ptr noundef %0, ptr noundef %1) #0 {
  %3 = alloca ptr, align 8
  %4 = alloca ptr, align 8
  %5 = alloca ptr, align 8
  %6 = alloca ptr, align 8
  %7 = alloca ptr, align 8
  %8 = alloca ptr, align 8
  %9 = alloca i32, align 4
  %10 = alloca i32, align 4
  %11 = alloca i32, align 4
  %12 = alloca i32, align 4
  %13 = alloca i32, align 4
  store ptr %0, ptr %3, align 8, !tbaa !4
  store ptr %1, ptr %4, align 8, !tbaa !46
  call void @llvm.lifetime.start.p0(i64 8, ptr %5) #6
  %14 = load ptr, ptr %4, align 8, !tbaa !46
  store ptr %14, ptr %5, align 8, !tbaa !37
  call void @llvm.lifetime.start.p0(i64 8, ptr %6) #6
  call void @llvm.lifetime.start.p0(i64 8, ptr %7) #6
  call void @llvm.lifetime.start.p0(i64 8, ptr %8) #6
  %15 = load ptr, ptr %5, align 8, !tbaa !37
  %16 = getelementptr inbounds nuw %struct.ppm_source_struct, ptr %15, i32 0, i32 4
  %17 = load ptr, ptr %16, align 8, !tbaa !66
  store ptr %17, ptr %8, align 8, !tbaa !73
  call void @llvm.lifetime.start.p0(i64 4, ptr %9) #6
  call void @llvm.lifetime.start.p0(i64 4, ptr %10) #6
  %18 = load ptr, ptr %5, align 8, !tbaa !37
  %19 = getelementptr inbounds nuw %struct.ppm_source_struct, ptr %18, i32 0, i32 5
  %20 = load i32, ptr %19, align 8, !tbaa !53
  store i32 %20, ptr %10, align 4, !tbaa !49
  %21 = load ptr, ptr %5, align 8, !tbaa !37
  %22 = getelementptr inbounds nuw %struct.ppm_source_struct, ptr %21, i32 0, i32 1
  %23 = load ptr, ptr %22, align 8, !tbaa !61
  %24 = load ptr, ptr %5, align 8, !tbaa !37
  %25 = getelementptr inbounds nuw %struct.ppm_source_struct, ptr %24, i32 0, i32 3
  %26 = load i64, ptr %25, align 8, !tbaa !60
  %27 = load ptr, ptr %5, align 8, !tbaa !37
  %28 = getelementptr inbounds nuw %struct.ppm_source_struct, ptr %27, i32 0, i32 0
  %29 = getelementptr inbounds nuw %struct.cjpeg_source_struct, ptr %28, i32 0, i32 3
  %30 = load ptr, ptr %29, align 8, !tbaa !48
  %31 = call i64 @fread(ptr noundef %23, i64 noundef 1, i64 noundef %26, ptr noundef %30)
  %32 = load ptr, ptr %5, align 8, !tbaa !37
  %33 = getelementptr inbounds nuw %struct.ppm_source_struct, ptr %32, i32 0, i32 3
  %34 = load i64, ptr %33, align 8, !tbaa !60
  %35 = icmp eq i64 %31, %34
  br i1 %35, label %47, label %36

36:                                               ; preds = %2
  %37 = load ptr, ptr %3, align 8, !tbaa !4
  %38 = getelementptr inbounds nuw %struct.jpeg_compress_struct, ptr %37, i32 0, i32 0
  %39 = load ptr, ptr %38, align 8, !tbaa !27
  %40 = getelementptr inbounds nuw %struct.jpeg_error_mgr, ptr %39, i32 0, i32 5
  store i32 43, ptr %40, align 8, !tbaa !28
  %41 = load ptr, ptr %3, align 8, !tbaa !4
  %42 = getelementptr inbounds nuw %struct.jpeg_compress_struct, ptr %41, i32 0, i32 0
  %43 = load ptr, ptr %42, align 8, !tbaa !27
  %44 = getelementptr inbounds nuw %struct.jpeg_error_mgr, ptr %43, i32 0, i32 0
  %45 = load ptr, ptr %44, align 8, !tbaa !33
  %46 = load ptr, ptr %3, align 8, !tbaa !4
  call void %45(ptr noundef %46)
  br label %47

47:                                               ; preds = %36, %2
  %48 = load ptr, ptr %5, align 8, !tbaa !37
  %49 = getelementptr inbounds nuw %struct.ppm_source_struct, ptr %48, i32 0, i32 0
  %50 = getelementptr inbounds nuw %struct.cjpeg_source_struct, ptr %49, i32 0, i32 4
  %51 = load ptr, ptr %50, align 8, !tbaa !63
  %52 = getelementptr inbounds ptr, ptr %51, i64 0
  %53 = load ptr, ptr %52, align 8, !tbaa !73
  store ptr %53, ptr %6, align 8, !tbaa !73
  %54 = load ptr, ptr %5, align 8, !tbaa !37
  %55 = getelementptr inbounds nuw %struct.ppm_source_struct, ptr %54, i32 0, i32 1
  %56 = load ptr, ptr %55, align 8, !tbaa !61
  store ptr %56, ptr %7, align 8, !tbaa !73
  %57 = load ptr, ptr %3, align 8, !tbaa !4
  %58 = getelementptr inbounds nuw %struct.jpeg_compress_struct, ptr %57, i32 0, i32 7
  %59 = load i32, ptr %58, align 8, !tbaa !51
  store i32 %59, ptr %9, align 4, !tbaa !49
  br label %60

60:                                               ; preds = %167, %47
  %61 = load i32, ptr %9, align 4, !tbaa !49
  %62 = icmp ugt i32 %61, 0
  br i1 %62, label %63, label %170

63:                                               ; preds = %60
  call void @llvm.lifetime.start.p0(i64 4, ptr %11) #6
  call void @llvm.lifetime.start.p0(i64 4, ptr %12) #6
  call void @llvm.lifetime.start.p0(i64 4, ptr %13) #6
  %64 = load ptr, ptr %7, align 8, !tbaa !73
  %65 = getelementptr inbounds nuw i8, ptr %64, i32 1
  store ptr %65, ptr %7, align 8, !tbaa !73
  %66 = load i8, ptr %64, align 1, !tbaa !32
  %67 = zext i8 %66 to i32
  %68 = shl i32 %67, 8
  store i32 %68, ptr %11, align 4, !tbaa !49
  %69 = load ptr, ptr %7, align 8, !tbaa !73
  %70 = getelementptr inbounds nuw i8, ptr %69, i32 1
  store ptr %70, ptr %7, align 8, !tbaa !73
  %71 = load i8, ptr %69, align 1, !tbaa !32
  %72 = zext i8 %71 to i32
  %73 = load i32, ptr %11, align 4, !tbaa !49
  %74 = or i32 %73, %72
  store i32 %74, ptr %11, align 4, !tbaa !49
  %75 = load i32, ptr %11, align 4, !tbaa !49
  %76 = load i32, ptr %10, align 4, !tbaa !49
  %77 = icmp ugt i32 %75, %76
  br i1 %77, label %78, label %89

78:                                               ; preds = %63
  %79 = load ptr, ptr %3, align 8, !tbaa !4
  %80 = getelementptr inbounds nuw %struct.jpeg_compress_struct, ptr %79, i32 0, i32 0
  %81 = load ptr, ptr %80, align 8, !tbaa !27
  %82 = getelementptr inbounds nuw %struct.jpeg_error_mgr, ptr %81, i32 0, i32 5
  store i32 1031, ptr %82, align 8, !tbaa !28
  %83 = load ptr, ptr %3, align 8, !tbaa !4
  %84 = getelementptr inbounds nuw %struct.jpeg_compress_struct, ptr %83, i32 0, i32 0
  %85 = load ptr, ptr %84, align 8, !tbaa !27
  %86 = getelementptr inbounds nuw %struct.jpeg_error_mgr, ptr %85, i32 0, i32 0
  %87 = load ptr, ptr %86, align 8, !tbaa !33
  %88 = load ptr, ptr %3, align 8, !tbaa !4
  call void %87(ptr noundef %88)
  br label %89

89:                                               ; preds = %78, %63
  %90 = load ptr, ptr %7, align 8, !tbaa !73
  %91 = getelementptr inbounds nuw i8, ptr %90, i32 1
  store ptr %91, ptr %7, align 8, !tbaa !73
  %92 = load i8, ptr %90, align 1, !tbaa !32
  %93 = zext i8 %92 to i32
  %94 = shl i32 %93, 8
  store i32 %94, ptr %12, align 4, !tbaa !49
  %95 = load ptr, ptr %7, align 8, !tbaa !73
  %96 = getelementptr inbounds nuw i8, ptr %95, i32 1
  store ptr %96, ptr %7, align 8, !tbaa !73
  %97 = load i8, ptr %95, align 1, !tbaa !32
  %98 = zext i8 %97 to i32
  %99 = load i32, ptr %12, align 4, !tbaa !49
  %100 = or i32 %99, %98
  store i32 %100, ptr %12, align 4, !tbaa !49
  %101 = load i32, ptr %12, align 4, !tbaa !49
  %102 = load i32, ptr %10, align 4, !tbaa !49
  %103 = icmp ugt i32 %101, %102
  br i1 %103, label %104, label %115

104:                                              ; preds = %89
  %105 = load ptr, ptr %3, align 8, !tbaa !4
  %106 = getelementptr inbounds nuw %struct.jpeg_compress_struct, ptr %105, i32 0, i32 0
  %107 = load ptr, ptr %106, align 8, !tbaa !27
  %108 = getelementptr inbounds nuw %struct.jpeg_error_mgr, ptr %107, i32 0, i32 5
  store i32 1031, ptr %108, align 8, !tbaa !28
  %109 = load ptr, ptr %3, align 8, !tbaa !4
  %110 = getelementptr inbounds nuw %struct.jpeg_compress_struct, ptr %109, i32 0, i32 0
  %111 = load ptr, ptr %110, align 8, !tbaa !27
  %112 = getelementptr inbounds nuw %struct.jpeg_error_mgr, ptr %111, i32 0, i32 0
  %113 = load ptr, ptr %112, align 8, !tbaa !33
  %114 = load ptr, ptr %3, align 8, !tbaa !4
  call void %113(ptr noundef %114)
  br label %115

115:                                              ; preds = %104, %89
  %116 = load ptr, ptr %7, align 8, !tbaa !73
  %117 = getelementptr inbounds nuw i8, ptr %116, i32 1
  store ptr %117, ptr %7, align 8, !tbaa !73
  %118 = load i8, ptr %116, align 1, !tbaa !32
  %119 = zext i8 %118 to i32
  %120 = shl i32 %119, 8
  store i32 %120, ptr %13, align 4, !tbaa !49
  %121 = load ptr, ptr %7, align 8, !tbaa !73
  %122 = getelementptr inbounds nuw i8, ptr %121, i32 1
  store ptr %122, ptr %7, align 8, !tbaa !73
  %123 = load i8, ptr %121, align 1, !tbaa !32
  %124 = zext i8 %123 to i32
  %125 = load i32, ptr %13, align 4, !tbaa !49
  %126 = or i32 %125, %124
  store i32 %126, ptr %13, align 4, !tbaa !49
  %127 = load i32, ptr %13, align 4, !tbaa !49
  %128 = load i32, ptr %10, align 4, !tbaa !49
  %129 = icmp ugt i32 %127, %128
  br i1 %129, label %130, label %141

130:                                              ; preds = %115
  %131 = load ptr, ptr %3, align 8, !tbaa !4
  %132 = getelementptr inbounds nuw %struct.jpeg_compress_struct, ptr %131, i32 0, i32 0
  %133 = load ptr, ptr %132, align 8, !tbaa !27
  %134 = getelementptr inbounds nuw %struct.jpeg_error_mgr, ptr %133, i32 0, i32 5
  store i32 1031, ptr %134, align 8, !tbaa !28
  %135 = load ptr, ptr %3, align 8, !tbaa !4
  %136 = getelementptr inbounds nuw %struct.jpeg_compress_struct, ptr %135, i32 0, i32 0
  %137 = load ptr, ptr %136, align 8, !tbaa !27
  %138 = getelementptr inbounds nuw %struct.jpeg_error_mgr, ptr %137, i32 0, i32 0
  %139 = load ptr, ptr %138, align 8, !tbaa !33
  %140 = load ptr, ptr %3, align 8, !tbaa !4
  call void %139(ptr noundef %140)
  br label %141

141:                                              ; preds = %130, %115
  %142 = load i32, ptr %10, align 4, !tbaa !49
  %143 = load ptr, ptr %8, align 8, !tbaa !73
  %144 = load i32, ptr %11, align 4, !tbaa !49
  %145 = zext i32 %144 to i64
  %146 = getelementptr inbounds nuw i8, ptr %143, i64 %145
  %147 = load i8, ptr %146, align 1, !tbaa !32
  %148 = load ptr, ptr %8, align 8, !tbaa !73
  %149 = load i32, ptr %12, align 4, !tbaa !49
  %150 = zext i32 %149 to i64
  %151 = getelementptr inbounds nuw i8, ptr %148, i64 %150
  %152 = load i8, ptr %151, align 1, !tbaa !32
  %153 = load ptr, ptr %8, align 8, !tbaa !73
  %154 = load i32, ptr %13, align 4, !tbaa !49
  %155 = zext i32 %154 to i64
  %156 = getelementptr inbounds nuw i8, ptr %153, i64 %155
  %157 = load i8, ptr %156, align 1, !tbaa !32
  %158 = load ptr, ptr %6, align 8, !tbaa !73
  %159 = load ptr, ptr %6, align 8, !tbaa !73
  %160 = getelementptr inbounds i8, ptr %159, i64 1
  %161 = load ptr, ptr %6, align 8, !tbaa !73
  %162 = getelementptr inbounds i8, ptr %161, i64 2
  %163 = load ptr, ptr %6, align 8, !tbaa !73
  %164 = getelementptr inbounds i8, ptr %163, i64 3
  call void @rgb_to_cmyk(i32 noundef %142, i8 noundef zeroext %147, i8 noundef zeroext %152, i8 noundef zeroext %157, ptr noundef %158, ptr noundef %160, ptr noundef %162, ptr noundef %164)
  %165 = load ptr, ptr %6, align 8, !tbaa !73
  %166 = getelementptr inbounds i8, ptr %165, i64 4
  store ptr %166, ptr %6, align 8, !tbaa !73
  call void @llvm.lifetime.end.p0(i64 4, ptr %13) #6
  call void @llvm.lifetime.end.p0(i64 4, ptr %12) #6
  call void @llvm.lifetime.end.p0(i64 4, ptr %11) #6
  br label %167

167:                                              ; preds = %141
  %168 = load i32, ptr %9, align 4, !tbaa !49
  %169 = add i32 %168, -1
  store i32 %169, ptr %9, align 4, !tbaa !49
  br label %60, !llvm.loop !98

170:                                              ; preds = %60
  call void @llvm.lifetime.end.p0(i64 4, ptr %10) #6
  call void @llvm.lifetime.end.p0(i64 4, ptr %9) #6
  call void @llvm.lifetime.end.p0(i64 8, ptr %8) #6
  call void @llvm.lifetime.end.p0(i64 8, ptr %7) #6
  call void @llvm.lifetime.end.p0(i64 8, ptr %6) #6
  call void @llvm.lifetime.end.p0(i64 8, ptr %5) #6
  ret i32 1
}