; Function Attrs: nounwind uwtable
define internal noundef i32 @get_word_rgb_cmyk_row(ptr noundef %0, ptr noundef readonly captures(none) %1) #0 {
  %3 = getelementptr inbounds nuw i8, ptr %1, i64 88
  %4 = load ptr, ptr %3, align 8, !tbaa !59
  %5 = getelementptr inbounds nuw i8, ptr %1, i64 96
  %6 = load i32, ptr %5, align 8, !tbaa !47
  %7 = getelementptr inbounds nuw i8, ptr %1, i64 64
  %8 = load ptr, ptr %7, align 8, !tbaa !54
  %9 = getelementptr inbounds nuw i8, ptr %1, i64 80
  %10 = load i64, ptr %9, align 8, !tbaa !53
  %11 = getelementptr inbounds nuw i8, ptr %1, i64 24
  %12 = load ptr, ptr %11, align 8, !tbaa !43
  %13 = tail call i64 @fread(ptr noundef %8, i64 noundef 1, i64 noundef %10, ptr noundef %12)
  %14 = load i64, ptr %9, align 8, !tbaa !53
  %15 = icmp eq i64 %13, %14
  br i1 %15, label %20, label %16

16:                                               ; preds = %2
  %17 = load ptr, ptr %0, align 8, !tbaa !25
  %18 = getelementptr inbounds nuw i8, ptr %17, i64 40
  store i32 43, ptr %18, align 8, !tbaa !26
  %19 = load ptr, ptr %17, align 8, !tbaa !31
  tail call void %19(ptr noundef nonnull %0) #6
  br label %20

20:                                               ; preds = %16, %2
  %21 = getelementptr inbounds nuw i8, ptr %0, i64 48
  %22 = load i32, ptr %21, align 8, !tbaa !45
  %.not52 = icmp eq i32 %22, 0
  br i1 %.not52, label %._crit_edge, label %.lr.ph

.lr.ph:                                           ; preds = %20
  %23 = load ptr, ptr %7, align 8, !tbaa !54
  %24 = getelementptr inbounds nuw i8, ptr %1, i64 32
  %25 = load ptr, ptr %24, align 8, !tbaa !57
  %26 = load ptr, ptr %25, align 8, !tbaa !63
  %27 = sitofp i32 %6 to double
  br label %28

28:                                               ; preds = %.lr.ph, %rgb_to_cmyk.exit
  %.055 = phi ptr [ %26, %.lr.ph ], [ %120, %rgb_to_cmyk.exit ]
  %.05054 = phi i32 [ %22, %.lr.ph ], [ %121, %rgb_to_cmyk.exit ]
  %.05153 = phi ptr [ %23, %.lr.ph ], [ %61, %rgb_to_cmyk.exit ]
  %29 = getelementptr inbounds nuw i8, ptr %.05153, i64 1
  %30 = load i8, ptr %.05153, align 1, !tbaa !30
  %31 = zext i8 %30 to i32
  %32 = shl nuw nsw i32 %31, 8
  %33 = getelementptr inbounds nuw i8, ptr %.05153, i64 2
  %34 = load i8, ptr %29, align 1, !tbaa !30
  %35 = zext i8 %34 to i32
  %36 = or disjoint i32 %32, %35
  %37 = icmp ugt i32 %36, %6
  br i1 %37, label %38, label %42

38:                                               ; preds = %28
  %39 = load ptr, ptr %0, align 8, !tbaa !25
  %40 = getelementptr inbounds nuw i8, ptr %39, i64 40
  store i32 1031, ptr %40, align 8, !tbaa !26
  %41 = load ptr, ptr %39, align 8, !tbaa !31
  tail call void %41(ptr noundef nonnull %0) #6
  br label %42

42:                                               ; preds = %38, %28
  %43 = getelementptr inbounds nuw i8, ptr %.05153, i64 3
  %44 = load i8, ptr %33, align 1, !tbaa !30
  %45 = zext i8 %44 to i32
  %46 = shl nuw nsw i32 %45, 8
  %47 = getelementptr inbounds nuw i8, ptr %.05153, i64 4
  %48 = load i8, ptr %43, align 1, !tbaa !30
  %49 = zext i8 %48 to i32
  %50 = or disjoint i32 %46, %49
  %51 = icmp ugt i32 %50, %6
  br i1 %51, label %52, label %56

52:                                               ; preds = %42
  %53 = load ptr, ptr %0, align 8, !tbaa !25
  %54 = getelementptr inbounds nuw i8, ptr %53, i64 40
  store i32 1031, ptr %54, align 8, !tbaa !26
  %55 = load ptr, ptr %53, align 8, !tbaa !31
  tail call void %55(ptr noundef nonnull %0) #6
  br label %56

56:                                               ; preds = %52, %42
  %57 = getelementptr inbounds nuw i8, ptr %.05153, i64 5
  %58 = load i8, ptr %47, align 1, !tbaa !30
  %59 = zext i8 %58 to i32
  %60 = shl nuw nsw i32 %59, 8
  %61 = getelementptr inbounds nuw i8, ptr %.05153, i64 6
  %62 = load i8, ptr %57, align 1, !tbaa !30
  %63 = zext i8 %62 to i32
  %64 = or disjoint i32 %60, %63
  %65 = icmp ugt i32 %64, %6
  br i1 %65, label %66, label %70

66:                                               ; preds = %56
  %67 = load ptr, ptr %0, align 8, !tbaa !25
  %68 = getelementptr inbounds nuw i8, ptr %67, i64 40
  store i32 1031, ptr %68, align 8, !tbaa !26
  %69 = load ptr, ptr %67, align 8, !tbaa !31
  tail call void %69(ptr noundef nonnull %0) #6
  br label %70

70:                                               ; preds = %66, %56
  %71 = zext nneg i32 %36 to i64
  %72 = getelementptr inbounds nuw i8, ptr %4, i64 %71
  %73 = load i8, ptr %72, align 1, !tbaa !30
  %74 = zext nneg i32 %50 to i64
  %75 = getelementptr inbounds nuw i8, ptr %4, i64 %74
  %76 = load i8, ptr %75, align 1, !tbaa !30
  %77 = zext nneg i32 %64 to i64
  %78 = getelementptr inbounds nuw i8, ptr %4, i64 %77
  %79 = load i8, ptr %78, align 1, !tbaa !30
  %80 = getelementptr inbounds nuw i8, ptr %.055, i64 1
  %81 = getelementptr inbounds nuw i8, ptr %.055, i64 2
  %82 = getelementptr inbounds nuw i8, ptr %.055, i64 3
  %83 = uitofp i8 %73 to double
  %84 = fdiv double %83, %27
  %85 = fsub double 1.000000e+00, %84
  %86 = uitofp i8 %76 to double
  %87 = fdiv double %86, %27
  %88 = fsub double 1.000000e+00, %87
  %89 = uitofp i8 %79 to double
  %90 = fdiv double %89, %27
  %91 = fsub double 1.000000e+00, %90
  %92 = fcmp olt double %85, %88
  %93 = select i1 %92, double %85, double %88
  %94 = fcmp olt double %93, %91
  %..i = select i1 %94, double %93, double %91
  %95 = fcmp oeq double %..i, 1.000000e+00
  br i1 %95, label %rgb_to_cmyk.exit, label %96

96:                                               ; preds = %70
  %97 = fsub double %85, %..i
  %98 = fsub double 1.000000e+00, %..i
  %99 = fdiv double %97, %98
  %100 = fsub double %88, %..i
  %101 = fdiv double %100, %98
  %102 = fsub double %91, %..i
  %103 = fdiv double %102, %98
  br label %rgb_to_cmyk.exit

rgb_to_cmyk.exit:                                 ; preds = %70, %96
  %.042.i = phi double [ %101, %96 ], [ 0.000000e+00, %70 ]
  %.041.i = phi double [ %103, %96 ], [ 0.000000e+00, %70 ]
  %.0.i = phi double [ %99, %96 ], [ 0.000000e+00, %70 ]
  %104 = fneg double %.0.i
  %105 = tail call double @llvm.fmuladd.f64(double %104, double %27, double %27)
  %106 = fadd double %105, 5.000000e-01
  %107 = fptoui double %106 to i8
  store i8 %107, ptr %.055, align 1, !tbaa !30
  %108 = fneg double %.042.i
  %109 = tail call double @llvm.fmuladd.f64(double %108, double %27, double %27)
  %110 = fadd double %109, 5.000000e-01
  %111 = fptoui double %110 to i8
  store i8 %111, ptr %80, align 1, !tbaa !30
  %112 = fneg double %.041.i
  %113 = tail call double @llvm.fmuladd.f64(double %112, double %27, double %27)
  %114 = fadd double %113, 5.000000e-01
  %115 = fptoui double %114 to i8
  store i8 %115, ptr %81, align 1, !tbaa !30
  %116 = fneg double %..i
  %117 = tail call double @llvm.fmuladd.f64(double %116, double %27, double %27)
  %118 = fadd double %117, 5.000000e-01
  %119 = fptoui double %118 to i8
  store i8 %119, ptr %82, align 1, !tbaa !30
  %120 = getelementptr inbounds nuw i8, ptr %.055, i64 4
  %121 = add i32 %.05054, -1
  %.not = icmp eq i32 %121, 0
  br i1 %.not, label %._crit_edge, label %28, !llvm.loop !88

._crit_edge:                                      ; preds = %rgb_to_cmyk.exit, %20
  ret i32 1
}